target datalayout = "e-m:e-p270:32:32-p271:32:32-p272:64:64-i64:64-i128:128-f80:128-n8:16:32:64-S128"
target triple = "x86_64-unknown-linux-gnu"

%"class.google::protobuf::compiler::java::MessageBuilderLiteGenerator" = type { ptr, ptr, ptr, ptr, %"class.google::protobuf::compiler::java::FieldGeneratorMap", %"class.absl::lts_20230802::btree_map" }
%"class.google::protobuf::compiler::java::FieldGeneratorMap" = type { ptr, %"class.std::vector" }
%"class.std::vector" = type { %"struct.std::_Vector_base" }
%"struct.std::_Vector_base" = type { %"struct.std::_Vector_base<std::unique_ptr<google::protobuf::compiler::java::ImmutableFieldLiteGenerator>, std::allocator<std::unique_ptr<google::protobuf::compiler::java::ImmutableFieldLiteGenerator>>>::_Vector_impl" }
%"struct.std::_Vector_base<std::unique_ptr<google::protobuf::compiler::java::ImmutableFieldLiteGenerator>, std::allocator<std::unique_ptr<google::protobuf::compiler::java::ImmutableFieldLiteGenerator>>>::_Vector_impl" = type { %"struct.std::_Vector_base<std::unique_ptr<google::protobuf::compiler::java::ImmutableFieldLiteGenerator>, std::allocator<std::unique_ptr<google::protobuf::compiler::java::ImmutableFieldLiteGenerator>>>::_Vector_impl_data" }
%"struct.std::_Vector_base<std::unique_ptr<google::protobuf::compiler::java::ImmutableFieldLiteGenerator>, std::allocator<std::unique_ptr<google::protobuf::compiler::java::ImmutableFieldLiteGenerator>>>::_Vector_impl_data" = type { ptr, ptr, ptr }
%"class.absl::lts_20230802::btree_map" = type { %"class.absl::lts_20230802::container_internal::btree_map_container" }
%"class.absl::lts_20230802::container_internal::btree_map_container" = type { %"class.absl::lts_20230802::container_internal::btree_set_container" }
%"class.absl::lts_20230802::container_internal::btree_set_container" = type { %"class.absl::lts_20230802::container_internal::btree_container" }
%"class.absl::lts_20230802::container_internal::btree_container" = type { %"class.absl::lts_20230802::container_internal::btree" }
%"class.absl::lts_20230802::container_internal::btree" = type { ptr, %"class.absl::lts_20230802::container_internal::CompressedTuple", i64 }
%"class.absl::lts_20230802::container_internal::CompressedTuple" = type { %"struct.absl::lts_20230802::container_internal::internal_compressed_tuple::CompressedTupleImpl" }
%"struct.absl::lts_20230802::container_internal::internal_compressed_tuple::CompressedTupleImpl" = type { %"struct.absl::lts_20230802::container_internal::internal_compressed_tuple::Storage.4" }
%"struct.absl::lts_20230802::container_internal::internal_compressed_tuple::Storage.4" = type { ptr }

; Function Attrs: mustprogress nounwind uwtable
define linkonce_odr hidden void @_ZNSt15__new_allocatorISt4pairIKiPKN6google8protobuf15OneofDescriptorEEED2Ev(ptr noundef nonnull align 1 dereferenceable(1) %this) unnamed_addr #5 comdat align 2 {
entry:
  %this.addr = alloca ptr, align 8
  store ptr %this, ptr %this.addr, align 8
  ret void
}

; Function Attrs: mustprogress nounwind uwtable
define linkonce_odr hidden void @_ZNSaISt4pairIKiPKN6google8protobuf15OneofDescriptorEEED2Ev(ptr noundef nonnull align 1 dereferenceable(1) %this) unnamed_addr #5 comdat align 2 {
entry:
  %this.addr = alloca ptr, align 8
  store ptr %this, ptr %this.addr, align 8
  %this1 = load ptr, ptr %this.addr, align 8
  call void @_ZNSt15__new_allocatorISt4pairIKiPKN6google8protobuf15OneofDescriptorEEED2Ev(ptr noundef nonnull align 1 dereferenceable(1) %this1) #3
  ret void
}

; Function Attrs: mustprogress nounwind uwtable
define linkonce_odr hidden void @_ZN4absl12lts_2023080218container_internal25internal_compressed_tuple7StorageISaISt4pairIKiPKN6google8protobuf15OneofDescriptorEEELm1ELb1EED2Ev(ptr noundef nonnull align 1 dereferenceable(1) %this) unnamed_addr #5 comdat align 2 {
entry:
  %this.addr = alloca ptr, align 8
  store ptr %this, ptr %this.addr, align 8
  %this1 = load ptr, ptr %this.addr, align 8
  call void @_ZNSaISt4pairIKiPKN6google8protobuf15OneofDescriptorEEED2Ev(ptr noundef nonnull align 1 dereferenceable(1) %this1) #3
  ret void
}

; Function Attrs: mustprogress nounwind uwtable
define linkonce_odr hidden void @_ZN4absl12lts_2023080218container_internal25internal_compressed_tuple19CompressedTupleImplINS1_15CompressedTupleIJNS1_19key_compare_adapterISt4lessIiEiE15checked_compareESaISt4pairIKiPKN6google8protobuf15OneofDescriptorEEEPNS1_10btree_nodeINS1_10map_paramsIiSG_S7_SI_Li256ELb0EEEEEEEENS0_16integer_sequenceImJLm0ELm1ELm2EEEELb1EED2Ev(ptr noundef nonnull align 8 dereferenceable(8) %this) unnamed_addr #5 comdat align 2 {
entry:
  %this.addr = alloca ptr, align 8
  store ptr %this, ptr %this.addr, align 8
  %this1 = load ptr, ptr %this.addr, align 8
  call void @_ZN4absl12lts_2023080218container_internal25internal_compressed_tuple7StorageISaISt4pairIKiPKN6google8protobuf15OneofDescriptorEEELm1ELb1EED2Ev(ptr noundef nonnull align 1 dereferenceable(1) %this1) #3
  ret void
}

; Function Attrs: mustprogress nounwind uwtable
define linkonce_odr hidden void @_ZN4absl12lts_2023080218container_internal15CompressedTupleIJNS1_19key_compare_adapterISt4lessIiEiE15checked_compareESaISt4pairIKiPKN6google8protobuf15OneofDescriptorEEEPNS1_10btree_nodeINS1_10map_paramsIiSE_S5_SG_Li256ELb0EEEEEEED2Ev(ptr noundef nonnull align 8 dereferenceable(8) %this) unnamed_addr #5 comdat align 2 {
entry:
  %this.addr = alloca ptr, align 8
  store ptr %this, ptr %this.addr, align 8
  %this1 = load ptr, ptr %this.addr, align 8
  call void @_ZN4absl12lts_2023080218container_internal25internal_compressed_tuple19CompressedTupleImplINS1_15CompressedTupleIJNS1_19key_compare_adapterISt4lessIiEiE15checked_compareESaISt4pairIKiPKN6google8protobuf15OneofDescriptorEEEPNS1_10btree_nodeINS1_10map_paramsIiSG_S7_SI_Li256ELb0EEEEEEEENS0_16integer_sequenceImJLm0ELm1ELm2EEEELb1EED2Ev(ptr noundef nonnull align 8 dereferenceable(8) %this1) #3
  ret void
}

; Function Attrs: mustprogress nounwind uwtable
define linkonce_odr hidden void @_ZN4absl12lts_2023080218container_internal5btreeINS1_10map_paramsIiPKN6google8protobuf15OneofDescriptorESt4lessIiESaISt4pairIKiS8_EELi256ELb0EEEED2Ev(ptr noundef nonnull align 8 dereferenceable(24) %this) unnamed_addr #5 comdat align 2 personality ptr @__gxx_personality_v0 {
entry:
  %this.addr = alloca ptr, align 8
  store ptr %this, ptr %this.addr, align 8
  %this1 = load ptr, ptr %this.addr, align 8
  invoke void @_ZN4absl12lts_2023080218container_internal5btreeINS1_10map_paramsIiPKN6google8protobuf15OneofDescriptorESt4lessIiESaISt4pairIKiS8_EELi256ELb0EEEE5clearEv(ptr noundef nonnull align 8 dereferenceable(24) %this1)
          to label %invoke.cont unwind label %terminate.lpad

invoke.cont:                                      ; preds = %entry
  %rightmost_ = getelementptr inbounds %"class.absl::lts_20230802::container_internal::btree", ptr %this1, i32 0, i32 1
  call void @_ZN4absl12lts_2023080218container_internal15CompressedTupleIJNS1_19key_compare_adapterISt4lessIiEiE15checked_compareESaISt4pairIKiPKN6google8protobuf15OneofDescriptorEEEPNS1_10btree_nodeINS1_10map_paramsIiSE_S5_SG_Li256ELb0EEEEEEED2Ev(ptr noundef nonnull align 8 dereferenceable(8) %rightmost_) #3
  ret void

terminate.lpad:                                   ; preds = %entry
  %0 = landingpad { ptr, i32 }
          catch ptr null
  %1 = extractvalue { ptr, i32 } %0, 0
  call void @__clang_call_terminate(ptr %1) #20
  unreachable
}

; Function Attrs: mustprogress nounwind uwtable
define linkonce_odr hidden void @_ZN4absl12lts_2023080218container_internal15btree_containerINS1_5btreeINS1_10map_paramsIiPKN6google8protobuf15OneofDescriptorESt4lessIiESaISt4pairIKiS9_EELi256ELb0EEEEEED2Ev(ptr noundef nonnull align 8 dereferenceable(24) %this) unnamed_addr #5 comdat align 2 {
entry:
  %this.addr = alloca ptr, align 8
  store ptr %this, ptr %this.addr, align 8
  %this1 = load ptr, ptr %this.addr, align 8
  %tree_ = getelementptr inbounds %"class.absl::lts_20230802::container_internal::btree_container", ptr %this1, i32 0, i32 0
  call void @_ZN4absl12lts_2023080218container_internal5btreeINS1_10map_paramsIiPKN6google8protobuf15OneofDescriptorESt4lessIiESaISt4pairIKiS8_EELi256ELb0EEEED2Ev(ptr noundef nonnull align 8 dereferenceable(24) %tree_) #3
  ret void
}

; Function Attrs: mustprogress nounwind uwtable
define linkonce_odr hidden void @_ZN4absl12lts_2023080218container_internal19btree_set_containerINS1_5btreeINS1_10map_paramsIiPKN6google8protobuf15OneofDescriptorESt4lessIiESaISt4pairIKiS9_EELi256ELb0EEEEEED2Ev(ptr noundef nonnull align 8 dereferenceable(24) %this) unnamed_addr #5 comdat align 2 {
entry:
  %this.addr = alloca ptr, align 8
  store ptr %this, ptr %this.addr, align 8
  %this1 = load ptr, ptr %this.addr, align 8
  call void @_ZN4absl12lts_2023080218container_internal15btree_containerINS1_5btreeINS1_10map_paramsIiPKN6google8protobuf15OneofDescriptorESt4lessIiESaISt4pairIKiS9_EELi256ELb0EEEEEED2Ev(ptr noundef nonnull align 8 dereferenceable(24) %this1) #3
  ret void
}

; Function Attrs: mustprogress nounwind uwtable
define linkonce_odr hidden void @_ZN4absl12lts_2023080218container_internal19btree_map_containerINS1_5btreeINS1_10map_paramsIiPKN6google8protobuf15OneofDescriptorESt4lessIiESaISt4pairIKiS9_EELi256ELb0EEEEEED2Ev(ptr noundef nonnull align 8 dereferenceable(24) %this) unnamed_addr #5 comdat align 2 {
entry:
  %this.addr = alloca ptr, align 8
  store ptr %this, ptr %this.addr, align 8
  %this1 = load ptr, ptr %this.addr, align 8
  call void @_ZN4absl12lts_2023080218container_internal19btree_set_containerINS1_5btreeINS1_10map_paramsIiPKN6google8protobuf15OneofDescriptorESt4lessIiESaISt4pairIKiS9_EELi256ELb0EEEEEED2Ev(ptr noundef nonnull align 8 dereferenceable(24) %this1) #3
  ret void
}

; Function Attrs: mustprogress nounwind uwtable
define linkonce_odr hidden void @_ZN4absl12lts_202308029btree_mapIiPKN6google8protobuf15OneofDescriptorESt4lessIiESaISt4pairIKiS6_EEED2Ev(ptr noundef nonnull align 8 dereferenceable(24) %this) unnamed_addr #5 comdat align 2 {
entry:
  %this.addr = alloca ptr, align 8
  store ptr %this, ptr %this.addr, align 8
  %this1 = load ptr, ptr %this.addr, align 8
  call void @_ZN4absl12lts_2023080218container_internal19btree_map_containerINS1_5btreeINS1_10map_paramsIiPKN6google8protobuf15OneofDescriptorESt4lessIiESaISt4pairIKiS9_EELi256ELb0EEEEEED2Ev(ptr noundef nonnull align 8 dereferenceable(24) %this1) #3
  ret void
}

; Function Attrs: mustprogress nounwind uwtable
define hidden void @_ZN6google8protobuf8compiler4java27MessageBuilderLiteGeneratorD2Ev(ptr noundef nonnull align 8 dereferenceable(88) %this) unnamed_addr #5 align 2 {
entry:
  %this.addr = alloca ptr, align 8
  store ptr %this, ptr %this.addr, align 8
  %this1 = load ptr, ptr %this.addr, align 8
  store ptr getelementptr inbounds ({ [5 x ptr] }, ptr @_ZTVN6google8protobuf8compiler4java27MessageBuilderLiteGeneratorE, i32 0, i32 0, i32 2), ptr %this1, align 8
  %oneofs_ = getelementptr inbounds %"class.google::protobuf::compiler::java::MessageBuilderLiteGenerator", ptr %this1, i32 0, i32 5
  call void @_ZN4absl12lts_202308029btree_mapIiPKN6google8protobuf15OneofDescriptorESt4lessIiESaISt4pairIKiS6_EEED2Ev(ptr noundef nonnull align 8 dereferenceable(24) %oneofs_) #3
  %field_generators_ = getelementptr inbounds %"class.google::protobuf::compiler::java::MessageBuilderLiteGenerator", ptr %this1, i32 0, i32 4
  call void @_ZN6google8protobuf8compiler4java17FieldGeneratorMapINS2_27ImmutableFieldLiteGeneratorEED1Ev(ptr noundef nonnull align 8 dereferenceable(32) %field_generators_) #3
  ret void
}